target datalayout = "e-m:e-p270:32:32-p271:32:32-p272:64:64-i64:64-i128:128-f80:128-n8:16:32:64-S128"
target triple = "x86_64-pc-linux-gnu"

%struct._zval_struct = type { %union._zend_value, %union.anon, %union.anon.2 }
%union._zend_value = type { i64 }
%union.anon = type { i32 }
%union.anon.2 = type { i32 }
%struct._zend_array = type { %struct._zend_refcounted_h, %union.anon.4, i32, %union.anon.6, i32, i32, i32, i32, i64, ptr }
%struct._zend_refcounted_h = type { i32, %union.anon.3 }
%union.anon.3 = type { i32 }
%union.anon.4 = type { i32 }
%union.anon.6 = type { ptr }
%struct._zend_phpdbg_globals = type { [11 x %struct._zend_array], %struct._zend_array, %struct._zend_array, ptr, ptr, %struct.phpdbg_frame_t, i32, ptr, %struct.phpdbg_lexer_data, ptr, %struct.sigaction, i32, i64, %struct.phpdbg_btree, %struct.phpdbg_btree, %struct._zend_array, %struct._zend_array, %struct._zend_array, %struct._zend_array, ptr, ptr, ptr, i8, ptr, ptr, ptr, i64, ptr, %struct._zval_struct, i32, i32, i8, i8, ptr, ptr, ptr, %struct._zend_array, ptr, ptr, ptr, [3 x %struct.anon.9], ptr, %struct.anon.10, i64, [2 x ptr], [3 x ptr], ptr, i8, ptr, ptr, [500 x i8], i32, %struct.phpdbg_signal_safe_mem, ptr, i64, ptr, i64 }
%struct.phpdbg_frame_t = type { i32, ptr, ptr }
%struct.phpdbg_lexer_data = type { i32, ptr, ptr, ptr, ptr, i32 }
%struct.sigaction = type { %union.anon.8, %struct.__sigset_t, i32, ptr }
%union.anon.8 = type { ptr }
%struct.__sigset_t = type { [16 x i64] }
%struct.phpdbg_btree = type { i64, i64, i8, ptr }
%struct.anon.9 = type { i32 }
%struct.anon.10 = type { i8, i32, i32, ptr, i32 }
%struct.phpdbg_signal_safe_mem = type { ptr, i8, ptr, ptr }

@phpdbg_globals = hidden global %struct._zend_phpdbg_globals zeroinitializer, align 8

; Function Attrs: nounwind uwtable
define internal i32 @zm_deactivate_phpdbg(i32 noundef %0, i32 noundef %1) #0 {
  %3 = alloca i32, align 4
  %4 = alloca i32, align 4
  store i32 %0, ptr %3, align 4, !tbaa !98
  store i32 %1, ptr %4, align 4, !tbaa !98
  %5 = load ptr, ptr getelementptr inbounds nuw (%struct._zend_phpdbg_globals, ptr @phpdbg_globals, i32 0, i32 48), align 8, !tbaa !169
  %6 = icmp ne ptr %5, null
  br i1 %6, label %7, label %10

7:                                                ; preds = %2
  %8 = load ptr, ptr getelementptr inbounds nuw (%struct._zend_phpdbg_globals, ptr @phpdbg_globals, i32 0, i32 48), align 8, !tbaa !169
  %9 = call i32 @fclose(ptr noundef %8)
  store ptr null, ptr getelementptr inbounds nuw (%struct._zend_phpdbg_globals, ptr @phpdbg_globals, i32 0, i32 48), align 8, !tbaa !169
  br label %10

10:                                               ; preds = %7, %2
  ret i32 0
}