; Function Attrs: nofree nounwind uwtable
define internal noundef i32 @zm_deactivate_phpdbg(i32 %0, i32 %1) #23 {
  %3 = load ptr, ptr getelementptr inbounds nuw (i8, ptr @phpdbg_globals, i64 1624), align 8, !tbaa !184
  %.not = icmp eq ptr %3, null
  br i1 %.not, label %6, label %4

4:                                                ; preds = %2
  %5 = tail call i32 @fclose(ptr noundef nonnull %3)
  store ptr null, ptr getelementptr inbounds nuw (i8, ptr @phpdbg_globals, i64 1624), align 8, !tbaa !184
  br label %6

6:                                                ; preds = %4, %2
  ret i32 0
}